; Function Attrs: nounwind uwtable
define hidden void @evmap_io_clear_(ptr noundef captures(none) %0) local_unnamed_addr #1 {
  %2 = load ptr, ptr %0, align 8
  %.not.i = icmp eq ptr %2, null
  br i1 %.not.i, label %evmap_signal_clear_.exit, label %.preheader.i

.preheader.i:                                     ; preds = %1
  %3 = getelementptr inbounds nuw i8, ptr %0, i64 8
  %4 = load i32, ptr %3, align 8
  %5 = icmp sgt i32 %4, 0
  br i1 %5, label %.lr.ph.i, label %._crit_edge.i

.lr.ph.i:                                         ; preds = %.preheader.i, %11
  %6 = phi i32 [ %12, %11 ], [ %4, %.preheader.i ]
  %indvars.iv.i = phi i64 [ %indvars.iv.next.i, %11 ], [ 0, %.preheader.i ]
  %7 = load ptr, ptr %0, align 8
  %8 = getelementptr inbounds nuw ptr, ptr %7, i64 %indvars.iv.i
  %9 = load ptr, ptr %8, align 8
  %.not11.i = icmp eq ptr %9, null
  br i1 %.not11.i, label %11, label %10

10:                                               ; preds = %.lr.ph.i
  tail call void @event_mm_free_(ptr noundef nonnull %9) #7
  %.pre.i = load i32, ptr %3, align 8
  br label %11

11:                                               ; preds = %10, %.lr.ph.i
  %12 = phi i32 [ %6, %.lr.ph.i ], [ %.pre.i, %10 ]
  %indvars.iv.next.i = add nuw nsw i64 %indvars.iv.i, 1
  %13 = sext i32 %12 to i64
  %14 = icmp slt i64 %indvars.iv.next.i, %13
  br i1 %14, label %.lr.ph.i, label %._crit_edge.loopexit.i, !llvm.loop !3

._crit_edge.loopexit.i:                           ; preds = %11
  %.pre14.i = load ptr, ptr %0, align 8
  br label %._crit_edge.i

._crit_edge.i:                                    ; preds = %._crit_edge.loopexit.i, %.preheader.i
  %15 = phi ptr [ %.pre14.i, %._crit_edge.loopexit.i ], [ %2, %.preheader.i ]
  tail call void @event_mm_free_(ptr noundef %15) #7
  store ptr null, ptr %0, align 8
  br label %evmap_signal_clear_.exit

evmap_signal_clear_.exit:                         ; preds = %1, %._crit_edge.i
  %16 = getelementptr inbounds nuw i8, ptr %0, i64 8
  store i32 0, ptr %16, align 8
  ret void
}